CCS PCM C Compiler, Version 4.074, 38112               20-mar-14 17:29

               Filename: C:\Users\Zenner\SkyDrive\RDC\RoboDeCombate\src\motherboard\basic\16f628a\main.lst

               ROM used: 334 words (16%)
                         Largest free fragment is 1714
               RAM used: 14 (6%) at main() level
                         21 (9%) worst case
               Stack:    2 locations

*
0000:  MOVLW  00
0001:  MOVWF  0A
0002:  GOTO   0B4
0003:  NOP
.................... #include "main.h" 
.................... #include <16F628A.h> 
.................... //////// Standard Header file for the PIC16F628A device //////////////// 
.................... #device PIC16F628A 
.................... #list 
....................  
....................  
.................... #FUSES NOWDT                 	//No Watch Dog Timer 
.................... #FUSES INTRC_IO              	//Internal RC Osc, no CLKOUT 
.................... #FUSES NOPUT                 	//No Power Up Timer 
.................... #FUSES NOPROTECT             	//Code not protected from reading 
.................... #FUSES NOBROWNOUT            	//No brownout reset 
.................... #FUSES MCLR                  	//Master Clear pin enabled 
.................... #FUSES NOLVP                 	//No low voltage prgming, B3(PIC16) or B5(PIC18) used for I/O 
.................... #FUSES NOCPD                 	//No EE protection 
....................  
.................... #use delay(clock=4000000) 
.................... #use rs232(baud=9600,parity=N,xmit=PIN_B2,rcv=PIN_B1,bits=8) 
....................  
....................  
.................... #include "lib/config.c" 
.................... /** 
.................... A0 = USE MOTOR_0 
.................... A1 = USE MOTOR_0 
.................... A2 = NOT USE 
.................... A3 = NOT USE 
.................... A4 = NOT USE 
.................... A5 = MRCLR 
.................... A6 = USE MOTOR_1 
.................... A7 = USE MOTOR_1 
.................... B0 = NOT USE 
.................... B1 = USE RX 
.................... B2 = USE TX 
.................... B3 = NOT USE 
.................... B4 = USE MOTOR_2 
.................... B5 = USE MOTOR_2 
.................... B6 = USE MOTOR_3 
.................... B7 = USE MOTOR_3 
....................  
....................  
.................... */ 
....................  
....................  
.................... struct MotorPin{ 
....................    int pin_enable; 
....................    int pin_dir; 
.................... }; 
....................  
.................... struct Motorpin motorpin[4]; 
....................  
....................  
.................... void config(){ 
.................... motorpin[0].pin_enable = PIN_A0; 
*
0004:  MOVLW  28
0005:  MOVWF  20
.................... motorpin[0].pin_dir = PIN_A1; 
0006:  MOVLW  29
0007:  MOVWF  21
.................... motorpin[1].pin_enable = PIN_A6; 
0008:  MOVLW  2E
0009:  MOVWF  22
.................... motorpin[1].pin_dir = PIN_A7; 
000A:  MOVLW  2F
000B:  MOVWF  23
.................... motorpin[2].pin_enable = PIN_B4; 
000C:  MOVLW  34
000D:  MOVWF  24
.................... motorpin[2].pin_dir = PIN_B5; 
000E:  MOVLW  35
000F:  MOVWF  25
.................... motorpin[3].pin_enable = PIN_B6; 
0010:  MOVLW  36
0011:  MOVWF  26
.................... motorpin[3].pin_dir = PIN_B7; 
0012:  MOVLW  37
0013:  MOVWF  27
....................  
.................... } 
0014:  GOTO   0E0 (RETURN)
....................  
.................... #include "lib/comand.c" 
.................... void moverMotor(struct Motorpin motorpin,int comando){ 
.................... switch(comando){ 
*
0035:  MOVF   2A,W
0036:  ADDLW  FC
0037:  BTFSC  03.0
0038:  GOTO   0AB
0039:  ADDLW  04
003A:  GOTO   0AC
....................    case 0:{ 
....................       output_low(motorPin.pin_enable); 
003B:  MOVF   28,W
003C:  MOVWF  2B
003D:  CLRF   2C
003E:  CLRF   2E
003F:  CLRF   2D
0040:  CALL   015
0041:  MOVF   28,W
0042:  MOVWF  2B
0043:  CLRF   2C
0044:  CLRF   2E
0045:  MOVLW  80
0046:  MOVWF  2D
0047:  CALL   015
....................       output_low(motorPin.pin_dir); 
0048:  MOVF   29,W
0049:  MOVWF  2B
004A:  CLRF   2C
004B:  CLRF   2E
004C:  CLRF   2D
004D:  CALL   015
004E:  MOVF   29,W
004F:  MOVWF  2B
0050:  CLRF   2C
0051:  CLRF   2E
0052:  MOVLW  80
0053:  MOVWF  2D
0054:  CALL   015
....................    }break; 
0055:  GOTO   0AB
....................    case 1:{ 
....................       output_low(motorPin.pin_enable); 
0056:  MOVF   28,W
0057:  MOVWF  2B
0058:  CLRF   2C
0059:  CLRF   2E
005A:  CLRF   2D
005B:  CALL   015
005C:  MOVF   28,W
005D:  MOVWF  2B
005E:  CLRF   2C
005F:  CLRF   2E
0060:  MOVLW  80
0061:  MOVWF  2D
0062:  CALL   015
....................       output_high(motorPin.pin_dir); 
0063:  MOVF   29,W
0064:  MOVWF  2B
0065:  MOVLW  01
0066:  MOVWF  2C
0067:  CLRF   2E
0068:  CLRF   2D
0069:  CALL   015
006A:  MOVF   29,W
006B:  MOVWF  2B
006C:  CLRF   2C
006D:  CLRF   2E
006E:  MOVLW  80
006F:  MOVWF  2D
0070:  CALL   015
....................    }break; 
0071:  GOTO   0AB
....................    case 2:{ 
....................       output_high(motorPin.pin_enable); 
0072:  MOVF   28,W
0073:  MOVWF  2B
0074:  MOVLW  01
0075:  MOVWF  2C
0076:  CLRF   2E
0077:  CLRF   2D
0078:  CALL   015
0079:  MOVF   28,W
007A:  MOVWF  2B
007B:  CLRF   2C
007C:  CLRF   2E
007D:  MOVLW  80
007E:  MOVWF  2D
007F:  CALL   015
....................       output_low(motorPin.pin_dir); 
0080:  MOVF   29,W
0081:  MOVWF  2B
0082:  CLRF   2C
0083:  CLRF   2E
0084:  CLRF   2D
0085:  CALL   015
0086:  MOVF   29,W
0087:  MOVWF  2B
0088:  CLRF   2C
0089:  CLRF   2E
008A:  MOVLW  80
008B:  MOVWF  2D
008C:  CALL   015
....................    }break; 
008D:  GOTO   0AB
....................    case 3:{ 
....................       output_high(motorPin.pin_enable); 
008E:  MOVF   28,W
008F:  MOVWF  2B
0090:  MOVLW  01
0091:  MOVWF  2C
0092:  CLRF   2E
0093:  CLRF   2D
0094:  CALL   015
0095:  MOVF   28,W
0096:  MOVWF  2B
0097:  CLRF   2C
0098:  CLRF   2E
0099:  MOVLW  80
009A:  MOVWF  2D
009B:  CALL   015
....................       output_high(motorPin.pin_dir); 
009C:  MOVF   29,W
009D:  MOVWF  2B
009E:  MOVLW  01
009F:  MOVWF  2C
00A0:  CLRF   2E
00A1:  CLRF   2D
00A2:  CALL   015
00A3:  MOVF   29,W
00A4:  MOVWF  2B
00A5:  CLRF   2C
00A6:  CLRF   2E
00A7:  MOVLW  80
00A8:  MOVWF  2D
00A9:  CALL   015
....................    }break; 
00AA:  GOTO   0AB
.................... } 
.................... } 
00AB:  RETLW  00
....................  
....................  
.................... void main() 
.................... { 
*
00B4:  CLRF   04
00B5:  BCF    03.7
00B6:  MOVLW  1F
00B7:  ANDWF  03,F
00B8:  BSF    03.5
00B9:  BSF    0E.3
00BA:  MOVLW  19
00BB:  MOVWF  19
00BC:  MOVLW  A6
00BD:  MOVWF  18
00BE:  MOVLW  90
00BF:  BCF    03.5
00C0:  MOVWF  18
00C1:  MOVLW  07
00C2:  MOVWF  1F
....................  
....................    setup_timer_0(RTCC_INTERNAL|RTCC_DIV_1); 
00C3:  BSF    03.5
00C4:  MOVF   01,W
00C5:  ANDLW  C7
00C6:  IORLW  08
00C7:  MOVWF  01
....................    setup_timer_1(T1_DISABLED); 
00C8:  BCF    03.5
00C9:  CLRF   10
....................    setup_timer_2(T2_DISABLED,0,1); 
00CA:  MOVLW  00
00CB:  MOVWF  78
00CC:  MOVWF  12
00CD:  MOVLW  00
00CE:  BSF    03.5
00CF:  MOVWF  12
....................    setup_comparator(NC_NC_NC_NC); 
00D0:  MOVLW  07
00D1:  BCF    03.5
00D2:  MOVWF  1F
00D3:  BSF    03.5
00D4:  MOVF   05,W
00D5:  MOVLW  03
00D6:  MOVWF  77
00D7:  DECFSZ 77,F
00D8:  GOTO   0D7
00D9:  BCF    03.5
00DA:  MOVF   1F,W
00DB:  BCF    0C.6
....................    setup_vref(FALSE); 
00DC:  BSF    03.5
00DD:  CLRF   1F
....................    config(); 
00DE:  BCF    03.5
00DF:  GOTO   004
....................    while(true){ 
....................     
....................    moverMotor(motorpin[0],0); 
00E0:  MOVF   21,W
00E1:  MOVWF  29
00E2:  MOVF   20,W
00E3:  MOVWF  28
00E4:  CLRF   2A
00E5:  CALL   035
....................    moverMotor(motorpin[0],1); 
00E6:  MOVF   21,W
00E7:  MOVWF  29
00E8:  MOVF   20,W
00E9:  MOVWF  28
00EA:  MOVLW  01
00EB:  MOVWF  2A
00EC:  CALL   035
....................    moverMotor(motorpin[0],2); 
00ED:  MOVF   21,W
00EE:  MOVWF  29
00EF:  MOVF   20,W
00F0:  MOVWF  28
00F1:  MOVLW  02
00F2:  MOVWF  2A
00F3:  CALL   035
....................    moverMotor(motorpin[0],3); 
00F4:  MOVF   21,W
00F5:  MOVWF  29
00F6:  MOVF   20,W
00F7:  MOVWF  28
00F8:  MOVLW  03
00F9:  MOVWF  2A
00FA:  CALL   035
....................    moverMotor(motorpin[1],0); 
00FB:  MOVF   23,W
00FC:  MOVWF  29
00FD:  MOVF   22,W
00FE:  MOVWF  28
00FF:  CLRF   2A
0100:  CALL   035
....................    moverMotor(motorpin[1],1); 
0101:  MOVF   23,W
0102:  MOVWF  29
0103:  MOVF   22,W
0104:  MOVWF  28
0105:  MOVLW  01
0106:  MOVWF  2A
0107:  CALL   035
....................    moverMotor(motorpin[1],2); 
0108:  MOVF   23,W
0109:  MOVWF  29
010A:  MOVF   22,W
010B:  MOVWF  28
010C:  MOVLW  02
010D:  MOVWF  2A
010E:  CALL   035
....................    moverMotor(motorpin[1],3); 
010F:  MOVF   23,W
0110:  MOVWF  29
0111:  MOVF   22,W
0112:  MOVWF  28
0113:  MOVLW  03
0114:  MOVWF  2A
0115:  CALL   035
....................    moverMotor(motorpin[2],0); 
0116:  MOVF   25,W
0117:  MOVWF  29
0118:  MOVF   24,W
0119:  MOVWF  28
011A:  CLRF   2A
011B:  CALL   035
....................    moverMotor(motorpin[2],1); 
011C:  MOVF   25,W
011D:  MOVWF  29
011E:  MOVF   24,W
011F:  MOVWF  28
0120:  MOVLW  01
0121:  MOVWF  2A
0122:  CALL   035
....................    moverMotor(motorpin[2],2); 
0123:  MOVF   25,W
0124:  MOVWF  29
0125:  MOVF   24,W
0126:  MOVWF  28
0127:  MOVLW  02
0128:  MOVWF  2A
0129:  CALL   035
....................    moverMotor(motorpin[2],3); 
012A:  MOVF   25,W
012B:  MOVWF  29
012C:  MOVF   24,W
012D:  MOVWF  28
012E:  MOVLW  03
012F:  MOVWF  2A
0130:  CALL   035
....................    moverMotor(motorpin[3],0); 
0131:  MOVF   27,W
0132:  MOVWF  29
0133:  MOVF   26,W
0134:  MOVWF  28
0135:  CLRF   2A
0136:  CALL   035
....................    moverMotor(motorpin[3],1); 
0137:  MOVF   27,W
0138:  MOVWF  29
0139:  MOVF   26,W
013A:  MOVWF  28
013B:  MOVLW  01
013C:  MOVWF  2A
013D:  CALL   035
....................    moverMotor(motorpin[3],2); 
013E:  MOVF   27,W
013F:  MOVWF  29
0140:  MOVF   26,W
0141:  MOVWF  28
0142:  MOVLW  02
0143:  MOVWF  2A
0144:  CALL   035
....................    moverMotor(motorpin[3],3); 
0145:  MOVF   27,W
0146:  MOVWF  29
0147:  MOVF   26,W
0148:  MOVWF  28
0149:  MOVLW  03
014A:  MOVWF  2A
014B:  CALL   035
....................    } 
014C:  GOTO   0E0
.................... //Setup_Oscillator parameter not selected from Intr Oscillator Config tab 
....................  
....................    // TODO: USER CODE!! 
....................  
.................... } 
014D:  SLEEP

Configuration Fuses:
   Word  1: 3F38   NOWDT NOPUT NOPROTECT NOBROWNOUT MCLR NOLVP INTRC_IO NOCPD
